; Function Attrs: mustprogress nofree norecurse nosync nounwind willreturn memory(argmem: read) uwtable
define signext range(i8 0, 2) i8 @uhash_compareChars_77(ptr readonly %0, ptr readonly %1) local_unnamed_addr #5 {
  %3 = icmp eq ptr %0, %1
  br i1 %3, label %18, label %4

4:                                                ; preds = %2
  %5 = icmp eq ptr %0, null
  %6 = icmp eq ptr %1, null
  %or.cond = or i1 %5, %6
  br i1 %or.cond, label %18, label %.preheader

.preheader:                                       ; preds = %4
  %7 = load i8, ptr %0, align 1, !tbaa !34
  %.not18 = icmp eq i8 %7, 0
  br i1 %.not18, label %.critedge, label %.lr.ph

.lr.ph:                                           ; preds = %.preheader, %11
  %8 = phi i8 [ %14, %11 ], [ %7, %.preheader ]
  %.020 = phi ptr [ %13, %11 ], [ %1, %.preheader ]
  %.01319 = phi ptr [ %12, %11 ], [ %0, %.preheader ]
  %9 = load i8, ptr %.020, align 1, !tbaa !34
  %10 = icmp eq i8 %8, %9
  br i1 %10, label %11, label %.critedge

11:                                               ; preds = %.lr.ph
  %12 = getelementptr inbounds nuw i8, ptr %.01319, i64 1
  %13 = getelementptr inbounds nuw i8, ptr %.020, i64 1
  %14 = load i8, ptr %12, align 1, !tbaa !34
  %.not = icmp eq i8 %14, 0
  br i1 %.not, label %.critedge, label %.lr.ph, !llvm.loop !49

.critedge:                                        ; preds = %.lr.ph, %11, %.preheader
  %.0.lcssa = phi ptr [ %1, %.preheader ], [ %13, %11 ], [ %.020, %.lr.ph ]
  %.lcssa = phi i8 [ 0, %.preheader ], [ 0, %11 ], [ %8, %.lr.ph ]
  %15 = load i8, ptr %.0.lcssa, align 1, !tbaa !34
  %16 = icmp eq i8 %.lcssa, %15
  %17 = zext i1 %16 to i8
  br label %18

18:                                               ; preds = %4, %2, %.critedge
  %.014 = phi i8 [ %17, %.critedge ], [ 1, %2 ], [ 0, %4 ]
  ret i8 %.014
}